target datalayout = "e-m:e-p270:32:32-p271:32:32-p272:64:64-i64:64-i128:128-f80:128-n8:16:32:64-S128"
target triple = "x86_64-pc-linux-gnu"

@tp_dissector_table = internal global ptr null, align 8
@gef_name_dissector_table = internal global ptr null, align 8
@proto_h225 = internal global i32 0, align 4
@.str.1583 = private unnamed_addr constant [5 x i8] c"h225\00", align 1
@.str.1585 = private unnamed_addr constant [14 x i8] c"H323-MESSAGES\00", align 1
@.str.1586 = private unnamed_addr constant [8 x i8] c"H.225.0\00", align 1
@.str.1587 = private unnamed_addr constant [10 x i8] c"H.225 RAS\00", align 1
@.str.1588 = private unnamed_addr constant [9 x i8] c"h225_ras\00", align 1
@.str.1589 = private unnamed_addr constant [9 x i8] c"tls.port\00", align 1
@.str.1590 = private unnamed_addr constant [15 x i8] c"H.225 TLS Port\00", align 1
@.str.1591 = private unnamed_addr constant [22 x i8] c"H.225 Server TLS Port\00", align 1
@h225_tls_port = internal global i32 1300, align 4
@.str.1592 = private unnamed_addr constant [11 x i8] c"reassembly\00", align 1
@.str.1593 = private unnamed_addr constant [57 x i8] c"Reassemble H.225 messages spanning multiple TCP segments\00", align 1
@.str.1594 = private unnamed_addr constant [206 x i8] c"Whether the H.225 dissector should reassemble messages spanning multiple TCP segments. To use this option, you must also enable \22Allow subdissectors to reassemble TCP streams\22 in the TCP protocol settings.\00", align 1
@h225_reassembly = internal global i8 1, align 1
@.str.1595 = private unnamed_addr constant [13 x i8] c"h245_in_tree\00", align 1
@.str.1596 = private unnamed_addr constant [44 x i8] c"Display tunnelled H.245 inside H.225.0 tree\00", align 1
@.str.1597 = private unnamed_addr constant [107 x i8] c"ON - display tunnelled H.245 inside H.225.0 tree, OFF - display tunnelled H.245 in root tree after H.225.0\00", align 1
@h225_h245_in_tree = internal global i8 1, align 1
@.str.1598 = private unnamed_addr constant [11 x i8] c"tp_in_tree\00", align 1
@.str.1599 = private unnamed_addr constant [48 x i8] c"Display tunnelled protocols inside H.225.0 tree\00", align 1
@.str.1600 = private unnamed_addr constant [115 x i8] c"ON - display tunnelled protocols inside H.225.0 tree, OFF - display tunnelled protocols in root tree after H.225.0\00", align 1
@h225_tp_in_tree = internal global i8 1, align 1
@.str.1601 = private unnamed_addr constant [7 x i8] c"h323ui\00", align 1
@.str.1602 = private unnamed_addr constant [9 x i8] c"h225.ras\00", align 1
@h225ras_handle = internal global ptr null, align 8
@.str.1603 = private unnamed_addr constant [16 x i8] c"h225.nsp.object\00", align 1
@.str.1604 = private unnamed_addr constant [34 x i8] c"H.225 NonStandardParameter Object\00", align 1
@nsp_object_dissector_table = internal global ptr null, align 8
@.str.1605 = private unnamed_addr constant [14 x i8] c"h225.nsp.h221\00", align 1
@.str.1606 = private unnamed_addr constant [32 x i8] c"H.225 NonStandardParameter h221\00", align 1
@nsp_h221_dissector_table = internal global ptr null, align 8
@.str.1607 = private unnamed_addr constant [8 x i8] c"h225.tp\00", align 1
@.str.1608 = private unnamed_addr constant [25 x i8] c"H.225 Tunnelled Protocol\00", align 1
@.str.1609 = private unnamed_addr constant [14 x i8] c"h225.gef.name\00", align 1
@.str.1610 = private unnamed_addr constant [40 x i8] c"H.225 Generic Extensible Framework Name\00", align 1
@.str.1611 = private unnamed_addr constant [17 x i8] c"h225.gef.content\00", align 1
@.str.1612 = private unnamed_addr constant [43 x i8] c"H.225 Generic Extensible Framework Content\00", align 1
@gef_content_dissector_table = internal global ptr null, align 8
@ras_calls = internal global [7 x ptr] zeroinitializer, align 16
@h225_tap = internal global i32 0, align 4
@.str.1613 = private unnamed_addr constant [10 x i8] c"Version 1\00", align 1
@.str.1614 = private unnamed_addr constant [15 x i8] c"0.0.8.2250.0.1\00", align 1
@.str.1615 = private unnamed_addr constant [10 x i8] c"Version 2\00", align 1
@.str.1616 = private unnamed_addr constant [15 x i8] c"0.0.8.2250.0.2\00", align 1
@.str.1617 = private unnamed_addr constant [10 x i8] c"Version 3\00", align 1
@.str.1618 = private unnamed_addr constant [15 x i8] c"0.0.8.2250.0.3\00", align 1
@.str.1619 = private unnamed_addr constant [10 x i8] c"Version 4\00", align 1
@.str.1620 = private unnamed_addr constant [15 x i8] c"0.0.8.2250.0.4\00", align 1
@.str.1621 = private unnamed_addr constant [10 x i8] c"Version 5\00", align 1
@.str.1622 = private unnamed_addr constant [15 x i8] c"0.0.8.2250.0.5\00", align 1
@.str.1623 = private unnamed_addr constant [10 x i8] c"Version 6\00", align 1
@.str.1624 = private unnamed_addr constant [15 x i8] c"0.0.8.2250.0.6\00", align 1

; Function Attrs: null_pointer_is_valid sspstrong uwtable
define hidden void @proto_register_h225() #0 {
  %1 = alloca ptr, align 8
  %2 = alloca i32, align 4
  %3 = alloca i32, align 4
  call void @llvm.lifetime.start.p0(i64 8, ptr %1) #11
  call void @llvm.lifetime.start.p0(i64 4, ptr %2) #11
  call void @llvm.lifetime.start.p0(i64 4, ptr %3) #11
  %4 = call i32 @proto_register_protocol(ptr noundef @.str.1585, ptr noundef @.str.1586, ptr noundef @.str.1583)
  store i32 %4, ptr @proto_h225, align 4
  %5 = call i32 @proto_register_protocol(ptr noundef @.str.1587, ptr noundef @.str.1587, ptr noundef @.str.1588)
  store i32 %5, ptr %3, align 4
  %6 = load i32, ptr @proto_h225, align 4
  call void @proto_register_field_array(i32 noundef %6, ptr noundef @proto_register_h225.hf, i32 noundef 779)
  call void @proto_register_subtree_array(ptr noundef @proto_register_h225.ett, i32 noundef 240)
  %7 = load i32, ptr @proto_h225, align 4
  %8 = call ptr @prefs_register_protocol(i32 noundef %7, ptr noundef @proto_reg_handoff_h225)
  store ptr %8, ptr %1, align 8
  %9 = load ptr, ptr %1, align 8
  call void @prefs_register_uint_preference(ptr noundef %9, ptr noundef @.str.1589, ptr noundef @.str.1590, ptr noundef @.str.1591, i32 noundef 10, ptr noundef @h225_tls_port)
  %10 = load ptr, ptr %1, align 8
  call void @prefs_register_bool_preference(ptr noundef %10, ptr noundef @.str.1592, ptr noundef @.str.1593, ptr noundef @.str.1594, ptr noundef @h225_reassembly)
  %11 = load ptr, ptr %1, align 8
  call void @prefs_register_bool_preference(ptr noundef %11, ptr noundef @.str.1595, ptr noundef @.str.1596, ptr noundef @.str.1597, ptr noundef @h225_h245_in_tree)
  %12 = load ptr, ptr %1, align 8
  call void @prefs_register_bool_preference(ptr noundef %12, ptr noundef @.str.1598, ptr noundef @.str.1599, ptr noundef @.str.1600, ptr noundef @h225_tp_in_tree)
  %13 = load i32, ptr @proto_h225, align 4
  %14 = call ptr @register_dissector(ptr noundef @.str.1583, ptr noundef @dissect_h225_H323UserInformation, i32 noundef %13)
  %15 = load i32, ptr @proto_h225, align 4
  %16 = call ptr @register_dissector(ptr noundef @.str.1601, ptr noundef @dissect_h225_H323UserInformation, i32 noundef %15)
  %17 = load i32, ptr @proto_h225, align 4
  %18 = call ptr @register_dissector(ptr noundef @.str.1602, ptr noundef @dissect_h225_h225_RasMessage, i32 noundef %17)
  store ptr %18, ptr @h225ras_handle, align 8
  %19 = load i32, ptr @proto_h225, align 4
  %20 = call ptr @register_dissector_table(ptr noundef @.str.1603, ptr noundef @.str.1604, i32 noundef %19, i32 noundef 26, i32 noundef 0)
  store ptr %20, ptr @nsp_object_dissector_table, align 8
  %21 = load i32, ptr @proto_h225, align 4
  %22 = call ptr @register_dissector_table(ptr noundef @.str.1605, ptr noundef @.str.1606, i32 noundef %21, i32 noundef 7, i32 noundef 2)
  store ptr %22, ptr @nsp_h221_dissector_table, align 8
  %23 = load i32, ptr @proto_h225, align 4
  %24 = call ptr @register_dissector_table(ptr noundef @.str.1607, ptr noundef @.str.1608, i32 noundef %23, i32 noundef 26, i32 noundef 0)
  store ptr %24, ptr @tp_dissector_table, align 8
  %25 = load i32, ptr @proto_h225, align 4
  %26 = call ptr @register_dissector_table(ptr noundef @.str.1609, ptr noundef @.str.1610, i32 noundef %25, i32 noundef 26, i32 noundef 0)
  store ptr %26, ptr @gef_name_dissector_table, align 8
  %27 = load i32, ptr @proto_h225, align 4
  %28 = call ptr @register_dissector_table(ptr noundef @.str.1611, ptr noundef @.str.1612, i32 noundef %27, i32 noundef 26, i32 noundef 0)
  store ptr %28, ptr @gef_content_dissector_table, align 8
  store i32 0, ptr %2, align 4
  br label %29

29:                                               ; preds = %39, %0
  %30 = load i32, ptr %2, align 4
  %31 = icmp slt i32 %30, 7
  br i1 %31, label %32, label %42

32:                                               ; preds = %29
  %33 = call ptr @wmem_epan_scope()
  %34 = call ptr @wmem_file_scope()
  %35 = call noalias ptr @wmem_map_new_autoreset(ptr noundef %33, ptr noundef %34, ptr noundef @h225ras_call_hash, ptr noundef @h225ras_call_equal)
  %36 = load i32, ptr %2, align 4
  %37 = sext i32 %36 to i64
  %38 = getelementptr [7 x ptr], ptr @ras_calls, i64 0, i64 %37
  store ptr %35, ptr %38, align 8
  br label %39

39:                                               ; preds = %32
  %40 = load i32, ptr %2, align 4
  %41 = add i32 %40, 1
  store i32 %41, ptr %2, align 4
  br label %29, !llvm.loop !6

42:                                               ; preds = %29
  %43 = call i32 @register_tap(ptr noundef @.str.1583)
  store i32 %43, ptr @h225_tap, align 4
  %44 = load i32, ptr %3, align 4
  call void @register_rtd_table(i32 noundef %44, ptr noundef @.str.1583, i32 noundef 7, i32 noundef 1, ptr noundef @ras_message_category, ptr noundef @h225rassrt_packet, ptr noundef null)
  call void @register_stat_tap_table_ui(ptr noundef @proto_register_h225.h225_stat_table)
  call void @oid_add_from_string(ptr noundef @.str.1613, ptr noundef @.str.1614)
  call void @oid_add_from_string(ptr noundef @.str.1615, ptr noundef @.str.1616)
  call void @oid_add_from_string(ptr noundef @.str.1617, ptr noundef @.str.1618)
  call void @oid_add_from_string(ptr noundef @.str.1619, ptr noundef @.str.1620)
  call void @oid_add_from_string(ptr noundef @.str.1621, ptr noundef @.str.1622)
  call void @oid_add_from_string(ptr noundef @.str.1623, ptr noundef @.str.1624)
  call void @llvm.lifetime.end.p0(i64 4, ptr %3) #11
  call void @llvm.lifetime.end.p0(i64 4, ptr %2) #11
  call void @llvm.lifetime.end.p0(i64 8, ptr %1) #11
  ret void
}