; Function Attrs: null_pointer_is_valid sspstrong uwtable
define hidden void @proto_register_h225() local_unnamed_addr #0 {
  %1 = tail call i32 @proto_register_protocol(ptr noundef nonnull @.str.1585, ptr noundef nonnull @.str.1586, ptr noundef nonnull @.str.1583)
  store i32 %1, ptr @proto_h225, align 4
  %2 = tail call i32 @proto_register_protocol(ptr noundef nonnull @.str.1587, ptr noundef nonnull @.str.1587, ptr noundef nonnull @.str.1588)
  %3 = load i32, ptr @proto_h225, align 4
  tail call void @proto_register_field_array(i32 noundef %3, ptr noundef nonnull @proto_register_h225.hf, i32 noundef 779)
  tail call void @proto_register_subtree_array(ptr noundef nonnull @proto_register_h225.ett, i32 noundef 240)
  %4 = load i32, ptr @proto_h225, align 4
  %5 = tail call ptr @prefs_register_protocol(i32 noundef %4, ptr noundef nonnull @proto_reg_handoff_h225)
  tail call void @prefs_register_uint_preference(ptr noundef %5, ptr noundef nonnull @.str.1589, ptr noundef nonnull @.str.1590, ptr noundef nonnull @.str.1591, i32 noundef 10, ptr noundef nonnull @h225_tls_port)
  tail call void @prefs_register_bool_preference(ptr noundef %5, ptr noundef nonnull @.str.1592, ptr noundef nonnull @.str.1593, ptr noundef nonnull @.str.1594, ptr noundef nonnull @h225_reassembly)
  tail call void @prefs_register_bool_preference(ptr noundef %5, ptr noundef nonnull @.str.1595, ptr noundef nonnull @.str.1596, ptr noundef nonnull @.str.1597, ptr noundef nonnull @h225_h245_in_tree)
  tail call void @prefs_register_bool_preference(ptr noundef %5, ptr noundef nonnull @.str.1598, ptr noundef nonnull @.str.1599, ptr noundef nonnull @.str.1600, ptr noundef nonnull @h225_tp_in_tree)
  %6 = load i32, ptr @proto_h225, align 4
  %7 = tail call ptr @register_dissector(ptr noundef nonnull @.str.1583, ptr noundef nonnull @dissect_h225_H323UserInformation, i32 noundef %6)
  %8 = load i32, ptr @proto_h225, align 4
  %9 = tail call ptr @register_dissector(ptr noundef nonnull @.str.1601, ptr noundef nonnull @dissect_h225_H323UserInformation, i32 noundef %8)
  %10 = load i32, ptr @proto_h225, align 4
  %11 = tail call ptr @register_dissector(ptr noundef nonnull @.str.1602, ptr noundef nonnull @dissect_h225_h225_RasMessage, i32 noundef %10)
  store ptr %11, ptr @h225ras_handle, align 8
  %12 = load i32, ptr @proto_h225, align 4
  %13 = tail call ptr @register_dissector_table(ptr noundef nonnull @.str.1603, ptr noundef nonnull @.str.1604, i32 noundef %12, i32 noundef 26, i32 noundef 0)
  store ptr %13, ptr @nsp_object_dissector_table, align 8
  %14 = load i32, ptr @proto_h225, align 4
  %15 = tail call ptr @register_dissector_table(ptr noundef nonnull @.str.1605, ptr noundef nonnull @.str.1606, i32 noundef %14, i32 noundef 7, i32 noundef 2)
  store ptr %15, ptr @nsp_h221_dissector_table, align 8
  %16 = load i32, ptr @proto_h225, align 4
  %17 = tail call ptr @register_dissector_table(ptr noundef nonnull @.str.1607, ptr noundef nonnull @.str.1608, i32 noundef %16, i32 noundef 26, i32 noundef 0)
  store ptr %17, ptr @tp_dissector_table, align 8
  %18 = load i32, ptr @proto_h225, align 4
  %19 = tail call ptr @register_dissector_table(ptr noundef nonnull @.str.1609, ptr noundef nonnull @.str.1610, i32 noundef %18, i32 noundef 26, i32 noundef 0)
  store ptr %19, ptr @gef_name_dissector_table, align 8
  %20 = load i32, ptr @proto_h225, align 4
  %21 = tail call ptr @register_dissector_table(ptr noundef nonnull @.str.1611, ptr noundef nonnull @.str.1612, i32 noundef %20, i32 noundef 26, i32 noundef 0)
  store ptr %21, ptr @gef_content_dissector_table, align 8
  br label %22

22:                                               ; preds = %0, %22
  %indvars.iv = phi i64 [ 0, %0 ], [ %indvars.iv.next, %22 ]
  %23 = tail call ptr @wmem_epan_scope()
  %24 = tail call ptr @wmem_file_scope()
  %25 = tail call noalias ptr @wmem_map_new_autoreset(ptr noundef %23, ptr noundef %24, ptr noundef nonnull @h225ras_call_hash, ptr noundef nonnull @h225ras_call_equal)
  %26 = getelementptr [7 x ptr], ptr @ras_calls, i64 0, i64 %indvars.iv
  store ptr %25, ptr %26, align 8
  %indvars.iv.next = add nuw nsw i64 %indvars.iv, 1
  %exitcond.not = icmp eq i64 %indvars.iv.next, 7
  br i1 %exitcond.not, label %27, label %22, !llvm.loop !6

27:                                               ; preds = %22
  %28 = tail call i32 @register_tap(ptr noundef nonnull @.str.1583)
  store i32 %28, ptr @h225_tap, align 4
  tail call void @register_rtd_table(i32 noundef %2, ptr noundef nonnull @.str.1583, i32 noundef 7, i32 noundef 1, ptr noundef nonnull @ras_message_category, ptr noundef nonnull @h225rassrt_packet, ptr noundef null)
  tail call void @register_stat_tap_table_ui(ptr noundef nonnull @proto_register_h225.h225_stat_table)
  tail call void @oid_add_from_string(ptr noundef nonnull @.str.1613, ptr noundef nonnull @.str.1614)
  tail call void @oid_add_from_string(ptr noundef nonnull @.str.1615, ptr noundef nonnull @.str.1616)
  tail call void @oid_add_from_string(ptr noundef nonnull @.str.1617, ptr noundef nonnull @.str.1618)
  tail call void @oid_add_from_string(ptr noundef nonnull @.str.1619, ptr noundef nonnull @.str.1620)
  tail call void @oid_add_from_string(ptr noundef nonnull @.str.1621, ptr noundef nonnull @.str.1622)
  tail call void @oid_add_from_string(ptr noundef nonnull @.str.1623, ptr noundef nonnull @.str.1624)
  ret void
}